target datalayout = "e-m:e-p270:32:32-p271:32:32-p272:64:64-i64:64-i128:128-f80:128-n8:16:32:64-S128"
target triple = "x86_64-pc-linux-gnu"

%"class.cv::BmpDecoder" = type { %"class.cv::BaseImageDecoder", %"class.cv::RLByteStream", [256 x %"struct.cv::PaletteEntry"], i32, i32, i32, i32, [4 x i32], [4 x i32], [4 x float] }
%"class.cv::BaseImageDecoder" = type { ptr, i32, i32, i32, i32, %"class.std::__cxx11::basic_string", %"class.std::__cxx11::basic_string", %"class.cv::Mat", i8, i8, [6 x i8], %"class.cv::ExifReader", i64, %"struct.cv::Animation" }
%"class.std::__cxx11::basic_string" = type { %"struct.std::__cxx11::basic_string<char>::_Alloc_hider", i64, %union.anon }
%"struct.std::__cxx11::basic_string<char>::_Alloc_hider" = type { ptr }
%union.anon = type { i64, [8 x i8] }
%"class.cv::Mat" = type { i32, i32, i32, i32, ptr, ptr, ptr, ptr, ptr, ptr, %"struct.cv::MatSize", %"struct.cv::MatStep" }
%"struct.cv::MatSize" = type { ptr }
%"struct.cv::MatStep" = type { ptr, [2 x i64] }
%"class.cv::ExifReader" = type <{ %"class.std::vector", %"class.std::map", i32, [4 x i8] }>
%"class.std::vector" = type { %"struct.std::_Vector_base" }
%"struct.std::_Vector_base" = type { %"struct.std::_Vector_base<unsigned char, std::allocator<unsigned char>>::_Vector_impl" }
%"struct.std::_Vector_base<unsigned char, std::allocator<unsigned char>>::_Vector_impl" = type { %"struct.std::_Vector_base<unsigned char, std::allocator<unsigned char>>::_Vector_impl_data" }
%"struct.std::_Vector_base<unsigned char, std::allocator<unsigned char>>::_Vector_impl_data" = type { ptr, ptr, ptr }
%"class.std::map" = type { %"class.std::_Rb_tree" }
%"class.std::_Rb_tree" = type { %"struct.std::_Rb_tree<int, std::pair<const int, cv::ExifEntry_t>, std::_Select1st<std::pair<const int, cv::ExifEntry_t>>, std::less<int>>::_Rb_tree_impl" }
%"struct.std::_Rb_tree<int, std::pair<const int, cv::ExifEntry_t>, std::_Select1st<std::pair<const int, cv::ExifEntry_t>>, std::less<int>>::_Rb_tree_impl" = type { [8 x i8], %"struct.std::_Rb_tree_header" }
%"struct.std::_Rb_tree_header" = type { %"struct.std::_Rb_tree_node_base", i64 }
%"struct.std::_Rb_tree_node_base" = type { i32, ptr, ptr, ptr }
%"struct.cv::Animation" = type { i32, %"class.cv::Scalar_", %"class.std::vector.6", %"class.std::vector.11" }
%"class.cv::Scalar_" = type { %"class.cv::Vec" }
%"class.cv::Vec" = type { %"class.cv::Matx" }
%"class.cv::Matx" = type { [4 x double] }
%"class.std::vector.6" = type { %"struct.std::_Vector_base.7" }
%"struct.std::_Vector_base.7" = type { %"struct.std::_Vector_base<int, std::allocator<int>>::_Vector_impl" }
%"struct.std::_Vector_base<int, std::allocator<int>>::_Vector_impl" = type { %"struct.std::_Vector_base<int, std::allocator<int>>::_Vector_impl_data" }
%"struct.std::_Vector_base<int, std::allocator<int>>::_Vector_impl_data" = type { ptr, ptr, ptr }
%"class.std::vector.11" = type { %"struct.std::_Vector_base.12" }
%"struct.std::_Vector_base.12" = type { %"struct.std::_Vector_base<cv::Mat, std::allocator<cv::Mat>>::_Vector_impl" }
%"struct.std::_Vector_base<cv::Mat, std::allocator<cv::Mat>>::_Vector_impl" = type { %"struct.std::_Vector_base<cv::Mat, std::allocator<cv::Mat>>::_Vector_impl_data" }
%"struct.std::_Vector_base<cv::Mat, std::allocator<cv::Mat>>::_Vector_impl_data" = type { ptr, ptr, ptr }
%"class.cv::RLByteStream" = type { %"class.cv::RBaseStream.base", [7 x i8] }
%"class.cv::RBaseStream.base" = type <{ ptr, i8, [7 x i8], ptr, ptr, ptr, ptr, i32, i32, i8 }>
%"struct.cv::PaletteEntry" = type { i8, i8, i8, i8 }

@_ZN2cvL10fmtSignBmpE = internal global ptr @.str.8, align 8
@_ZTVN2cv12RLByteStreamE = external unnamed_addr constant { [10 x ptr] }, align 8

; Function Attrs: mustprogress nounwind uwtable
define linkonce_odr hidden noundef i64 @_ZNSt11char_traitsIcE6lengthEPKc(ptr noundef %0) #6 comdat align 2 {
  %2 = alloca ptr, align 8
  store ptr %0, ptr %2, align 8, !tbaa !10
  %3 = load ptr, ptr %2, align 8, !tbaa !10
  %4 = call i64 @strlen(ptr noundef %3) #3
  ret i64 %4
}

; Function Attrs: mustprogress nounwind uwtable
define available_externally noundef i64 @_ZNKSt7__cxx1112basic_stringIcSt11char_traitsIcESaIcEE4sizeEv(ptr noundef nonnull align 8 dereferenceable(32) %0) #6 align 2 {
  %2 = alloca ptr, align 8
  store ptr %0, ptr %2, align 8, !tbaa !66
  %3 = load ptr, ptr %2, align 8
  %4 = getelementptr inbounds nuw %"class.std::__cxx11::basic_string", ptr %3, i32 0, i32 1
  %5 = load i64, ptr %4, align 8, !tbaa !196
  ret i64 %5
}

; Function Attrs: mustprogress uwtable
define available_externally noundef nonnull align 8 dereferenceable(32) ptr @_ZNSt7__cxx1112basic_stringIcSt11char_traitsIcESaIcEE6assignEPKc(ptr noundef nonnull align 8 dereferenceable(32) %0, ptr noundef %1) #4 align 2 {
  %3 = alloca ptr, align 8
  %4 = alloca ptr, align 8
  store ptr %0, ptr %3, align 8, !tbaa !66
  store ptr %1, ptr %4, align 8, !tbaa !10
  %5 = load ptr, ptr %3, align 8
  %6 = call noundef i64 @_ZNKSt7__cxx1112basic_stringIcSt11char_traitsIcESaIcEE4sizeEv(ptr noundef nonnull align 8 dereferenceable(32) %5) #3
  %7 = load ptr, ptr %4, align 8, !tbaa !10
  %8 = load ptr, ptr %4, align 8, !tbaa !10
  %9 = call noundef i64 @_ZNSt11char_traitsIcE6lengthEPKc(ptr noundef %8)
  %10 = call noundef nonnull align 8 dereferenceable(32) ptr @_ZNSt7__cxx1112basic_stringIcSt11char_traitsIcESaIcEE10_M_replaceEmmPKcm(ptr noundef nonnull align 8 dereferenceable(32) %5, i64 noundef 0, i64 noundef %6, ptr noundef %7, i64 noundef %9)
  ret ptr %10
}

; Function Attrs: mustprogress nounwind uwtable
define hidden void @_ZN2cv10BmpDecoder8initMaskEv(ptr noundef nonnull align 8 dereferenceable(1520) %0) #6 align 2 {
  %2 = alloca ptr, align 8
  %3 = alloca i64, align 8
  store ptr %0, ptr %2, align 8, !tbaa !3
  %4 = load ptr, ptr %2, align 8
  %5 = getelementptr inbounds nuw %"class.cv::BmpDecoder", ptr %4, i32 0, i32 7
  %6 = getelementptr inbounds [4 x i32], ptr %5, i64 0, i64 0
  call void @llvm.memset.p0.i64(ptr align 8 %6, i8 0, i64 16, i1 false)
  %7 = getelementptr inbounds nuw %"class.cv::BmpDecoder", ptr %4, i32 0, i32 8
  %8 = getelementptr inbounds [4 x i32], ptr %7, i64 0, i64 0
  call void @llvm.memset.p0.i64(ptr align 8 %8, i8 -1, i64 16, i1 false)
  call void @llvm.lifetime.start.p0(i64 8, ptr %3) #3
  store i64 0, ptr %3, align 8, !tbaa !68
  br label %9

9:                                                ; preds = %17, %1
  %10 = load i64, ptr %3, align 8, !tbaa !68
  %11 = icmp ult i64 %10, 4
  br i1 %11, label %13, label %12

12:                                               ; preds = %9
  call void @llvm.lifetime.end.p0(i64 8, ptr %3) #3
  br label %20

13:                                               ; preds = %9
  %14 = getelementptr inbounds nuw %"class.cv::BmpDecoder", ptr %4, i32 0, i32 9
  %15 = load i64, ptr %3, align 8, !tbaa !68
  %16 = getelementptr inbounds nuw [4 x float], ptr %14, i64 0, i64 %15
  store float 1.000000e+00, ptr %16, align 4, !tbaa !69
  br label %17

17:                                               ; preds = %13
  %18 = load i64, ptr %3, align 8, !tbaa !68
  %19 = add i64 %18, 1
  store i64 %19, ptr %3, align 8, !tbaa !68
  br label %9, !llvm.loop !71

20:                                               ; preds = %12
  ret void
}

; Function Attrs: mustprogress uwtable
define available_externally noundef nonnull align 8 dereferenceable(32) ptr @_ZNSt7__cxx1112basic_stringIcSt11char_traitsIcESaIcEEaSEPKc(ptr noundef nonnull align 8 dereferenceable(32) %0, ptr noundef %1) #4 align 2 {
  %3 = alloca ptr, align 8
  %4 = alloca ptr, align 8
  store ptr %0, ptr %3, align 8, !tbaa !66
  store ptr %1, ptr %4, align 8, !tbaa !10
  %5 = load ptr, ptr %3, align 8
  %6 = load ptr, ptr %4, align 8, !tbaa !10
  %7 = call noundef nonnull align 8 dereferenceable(32) ptr @_ZNSt7__cxx1112basic_stringIcSt11char_traitsIcESaIcEE6assignEPKc(ptr noundef nonnull align 8 dereferenceable(32) %5, ptr noundef %6)
  ret ptr %7
}

; Function Attrs: inlinehint mustprogress uwtable
define linkonce_odr hidden void @_ZN2cv12RLByteStreamC2Ev(ptr noundef nonnull align 8 dereferenceable(57) %0) unnamed_addr #5 comdat align 2 {
  %2 = alloca ptr, align 8
  store ptr %0, ptr %2, align 8, !tbaa !64
  %3 = load ptr, ptr %2, align 8
  call void @_ZN2cv11RBaseStreamC2Ev(ptr noundef nonnull align 8 dereferenceable(57) %3)
  store ptr getelementptr inbounds inrange(-16, 64) ({ [10 x ptr] }, ptr @_ZTVN2cv12RLByteStreamE, i32 0, i32 0, i32 2), ptr %3, align 8, !tbaa !8
  ret void
}

; Function Attrs: mustprogress uwtable
define hidden void @_ZN2cv10BmpDecoderC2Ev(ptr noundef nonnull align 8 dereferenceable(1520) %0) unnamed_addr #4 align 2 personality ptr @__gxx_personality_v0 {
  %2 = alloca ptr, align 8
  %3 = alloca ptr, align 8
  %4 = alloca i32, align 4
  store ptr %0, ptr %2, align 8, !tbaa !3
  %5 = load ptr, ptr %2, align 8
  call void @_ZN2cv16BaseImageDecoderC2Ev(ptr noundef nonnull align 8 dereferenceable(368) %5)
  store ptr getelementptr inbounds inrange(-16, 104) ({ [15 x ptr] }, ptr @_ZTVN2cv10BmpDecoderE, i32 0, i32 0, i32 2), ptr %5, align 8, !tbaa !8
  %6 = getelementptr inbounds nuw %"class.cv::BmpDecoder", ptr %5, i32 0, i32 1
  invoke void @_ZN2cv12RLByteStreamC2Ev(ptr noundef nonnull align 8 dereferenceable(57) %6)
          to label %7 unwind label %18

7:                                                ; preds = %1
  %8 = load ptr, ptr @_ZN2cvL10fmtSignBmpE, align 8, !tbaa !10
  %9 = getelementptr inbounds nuw %"class.cv::BaseImageDecoder", ptr %5, i32 0, i32 6
  %10 = invoke noundef nonnull align 8 dereferenceable(32) ptr @_ZNSt7__cxx1112basic_stringIcSt11char_traitsIcESaIcEEaSEPKc(ptr noundef nonnull align 8 dereferenceable(32) %9, ptr noundef %8)
          to label %11 unwind label %22

11:                                               ; preds = %7
  %12 = getelementptr inbounds nuw %"class.cv::BmpDecoder", ptr %5, i32 0, i32 5
  store i32 -1, ptr %12, align 8, !tbaa !12
  %13 = getelementptr inbounds nuw %"class.cv::BaseImageDecoder", ptr %5, i32 0, i32 8
  store i8 1, ptr %13, align 8, !tbaa !60
  %14 = getelementptr inbounds nuw %"class.cv::BmpDecoder", ptr %5, i32 0, i32 3
  store i32 0, ptr %14, align 8, !tbaa !61
  %15 = getelementptr inbounds nuw %"class.cv::BmpDecoder", ptr %5, i32 0, i32 4
  store i32 0, ptr %15, align 4, !tbaa !62
  %16 = getelementptr inbounds nuw %"class.cv::BmpDecoder", ptr %5, i32 0, i32 6
  store i32 0, ptr %16, align 4, !tbaa !63
  invoke void @_ZN2cv10BmpDecoder8initMaskEv(ptr noundef nonnull align 8 dereferenceable(1520) %5)
          to label %17 unwind label %22

17:                                               ; preds = %11
  ret void

18:                                               ; preds = %1
  %19 = landingpad { ptr, i32 }
          cleanup
  %20 = extractvalue { ptr, i32 } %19, 0
  store ptr %20, ptr %3, align 8
  %21 = extractvalue { ptr, i32 } %19, 1
  store i32 %21, ptr %4, align 4
  br label %26

22:                                               ; preds = %11, %7
  %23 = landingpad { ptr, i32 }
          cleanup
  %24 = extractvalue { ptr, i32 } %23, 0
  store ptr %24, ptr %3, align 8
  %25 = extractvalue { ptr, i32 } %23, 1
  store i32 %25, ptr %4, align 4
  call void @_ZN2cv12RLByteStreamD1Ev(ptr noundef nonnull align 8 dereferenceable(57) %6) #3
  br label %26

26:                                               ; preds = %22, %18
  call void @_ZN2cv16BaseImageDecoderD2Ev(ptr noundef nonnull align 8 dereferenceable(368) %5) #3
  br label %27

27:                                               ; preds = %26
  %28 = load ptr, ptr %3, align 8
  %29 = load i32, ptr %4, align 4
  %30 = insertvalue { ptr, i32 } poison, ptr %28, 0
  %31 = insertvalue { ptr, i32 } %30, i32 %29, 1
  resume { ptr, i32 } %31
}