; Function Attrs: mustprogress uwtable
define hidden void @_ZN2cv10BmpDecoderC2Ev(ptr noundef nonnull align 8 dereferenceable(1520) %0) unnamed_addr #3 align 2 personality ptr @__gxx_personality_v0 {
  tail call void @_ZN2cv16BaseImageDecoderC2Ev(ptr noundef nonnull align 8 dereferenceable(368) %0)
  store ptr getelementptr inbounds nuw inrange(-16, 104) (i8, ptr @_ZTVN2cv10BmpDecoderE, i64 16), ptr %0, align 8, !tbaa !3
  %2 = getelementptr inbounds nuw i8, ptr %0, i64 368
  invoke void @_ZN2cv11RBaseStreamC2Ev(ptr noundef nonnull align 8 dereferenceable(57) %2)
          to label %3 unwind label %18

3:                                                ; preds = %1
  store ptr getelementptr inbounds nuw inrange(-16, 64) (i8, ptr @_ZTVN2cv12RLByteStreamE, i64 16), ptr %2, align 8, !tbaa !3
  %4 = getelementptr inbounds nuw i8, ptr %0, i64 56
  %5 = getelementptr inbounds nuw i8, ptr %0, i64 64
  %6 = load i64, ptr %5, align 8, !tbaa !6
  %7 = invoke noundef nonnull align 8 dereferenceable(32) ptr @_ZNSt7__cxx1112basic_stringIcSt11char_traitsIcESaIcEE10_M_replaceEmmPKcm(ptr noundef nonnull align 8 dereferenceable(32) %4, i64 noundef 0, i64 noundef %6, ptr noundef nonnull @.str.8, i64 noundef 2)
          to label %_ZNSt7__cxx1112basic_stringIcSt11char_traitsIcESaIcEEaSEPKc.exit unwind label %20

_ZNSt7__cxx1112basic_stringIcSt11char_traitsIcESaIcEEaSEPKc.exit: ; preds = %3
  %8 = getelementptr inbounds nuw i8, ptr %0, i64 1464
  store i32 -1, ptr %8, align 8, !tbaa !13
  %9 = getelementptr inbounds nuw i8, ptr %0, i64 184
  store i8 1, ptr %9, align 8, !tbaa !58
  %10 = getelementptr inbounds nuw i8, ptr %0, i64 1456
  store i32 0, ptr %10, align 8, !tbaa !59
  %11 = getelementptr inbounds nuw i8, ptr %0, i64 1460
  store i32 0, ptr %11, align 4, !tbaa !60
  %12 = getelementptr inbounds nuw i8, ptr %0, i64 1468
  %13 = getelementptr inbounds nuw i8, ptr %0, i64 1488
  tail call void @llvm.memset.p0.i64(ptr noundef nonnull align 4 dereferenceable(20) %12, i8 0, i64 20, i1 false)
  tail call void @llvm.memset.p0.i64(ptr noundef nonnull align 8 dereferenceable(16) %13, i8 -1, i64 16, i1 false)
  %14 = getelementptr inbounds nuw i8, ptr %0, i64 1504
  br label %15

15:                                               ; preds = %15, %_ZNSt7__cxx1112basic_stringIcSt11char_traitsIcESaIcEEaSEPKc.exit
  %.03.i = phi i64 [ 0, %_ZNSt7__cxx1112basic_stringIcSt11char_traitsIcESaIcEEaSEPKc.exit ], [ %17, %15 ]
  %16 = getelementptr inbounds nuw [4 x float], ptr %14, i64 0, i64 %.03.i
  store float 1.000000e+00, ptr %16, align 4, !tbaa !61
  %17 = add nuw nsw i64 %.03.i, 1
  %exitcond.not.i = icmp eq i64 %17, 4
  br i1 %exitcond.not.i, label %_ZN2cv10BmpDecoder8initMaskEv.exit, label %15, !llvm.loop !63

_ZN2cv10BmpDecoder8initMaskEv.exit:               ; preds = %15
  ret void

18:                                               ; preds = %1
  %19 = landingpad { ptr, i32 }
          cleanup
  br label %22

20:                                               ; preds = %3
  %21 = landingpad { ptr, i32 }
          cleanup
  tail call void @_ZN2cv12RLByteStreamD1Ev(ptr noundef nonnull align 8 dereferenceable(57) %2) #19
  br label %22

22:                                               ; preds = %20, %18
  %.pn = phi { ptr, i32 } [ %21, %20 ], [ %19, %18 ]
  tail call void @_ZN2cv16BaseImageDecoderD2Ev(ptr noundef nonnull align 8 dereferenceable(368) %0) #19
  resume { ptr, i32 } %.pn
}